target datalayout = "e-m:e-p270:32:32-p271:32:32-p272:64:64-i64:64-i128:128-f80:128-n8:16:32:64-S128"
target triple = "x86_64-pc-linux-gnu"

%struct.http2_stream_data = type { ptr, ptr, ptr, i32, i32 }
%struct.nghttp2_frame_hd = type { i64, i32, i8, i8, i8 }
%struct.nghttp2_headers = type { %struct.nghttp2_frame_hd, i64, %struct.nghttp2_priority_spec, ptr, i64, i32 }
%struct.nghttp2_priority_spec = type { i32, i32, i8 }

@__const.on_header_callback.PATH = private unnamed_addr constant [6 x i8] c":path\00", align 1

; Function Attrs: nounwind uwtable
define internal zeroext i8 @hex_to_uint(i8 noundef zeroext %0) #0 {
  %2 = alloca i8, align 1
  %3 = alloca i8, align 1
  store i8 %0, ptr %3, align 1, !tbaa !14
  %4 = load i8, ptr %3, align 1, !tbaa !14
  %5 = zext i8 %4 to i32
  %6 = icmp sle i32 48, %5
  br i1 %6, label %7, label %16

7:                                                ; preds = %1
  %8 = load i8, ptr %3, align 1, !tbaa !14
  %9 = zext i8 %8 to i32
  %10 = icmp sle i32 %9, 57
  br i1 %10, label %11, label %16

11:                                               ; preds = %7
  %12 = load i8, ptr %3, align 1, !tbaa !14
  %13 = zext i8 %12 to i32
  %14 = sub nsw i32 %13, 48
  %15 = trunc i32 %14 to i8
  store i8 %15, ptr %2, align 1
  br label %45

16:                                               ; preds = %7, %1
  %17 = load i8, ptr %3, align 1, !tbaa !14
  %18 = zext i8 %17 to i32
  %19 = icmp sle i32 65, %18
  br i1 %19, label %20, label %30

20:                                               ; preds = %16
  %21 = load i8, ptr %3, align 1, !tbaa !14
  %22 = zext i8 %21 to i32
  %23 = icmp sle i32 %22, 70
  br i1 %23, label %24, label %30

24:                                               ; preds = %20
  %25 = load i8, ptr %3, align 1, !tbaa !14
  %26 = zext i8 %25 to i32
  %27 = sub nsw i32 %26, 65
  %28 = add nsw i32 %27, 10
  %29 = trunc i32 %28 to i8
  store i8 %29, ptr %2, align 1
  br label %45

30:                                               ; preds = %20, %16
  %31 = load i8, ptr %3, align 1, !tbaa !14
  %32 = zext i8 %31 to i32
  %33 = icmp sle i32 97, %32
  br i1 %33, label %34, label %44

34:                                               ; preds = %30
  %35 = load i8, ptr %3, align 1, !tbaa !14
  %36 = zext i8 %35 to i32
  %37 = icmp sle i32 %36, 102
  br i1 %37, label %38, label %44

38:                                               ; preds = %34
  %39 = load i8, ptr %3, align 1, !tbaa !14
  %40 = zext i8 %39 to i32
  %41 = sub nsw i32 %40, 97
  %42 = add nsw i32 %41, 10
  %43 = trunc i32 %42 to i8
  store i8 %43, ptr %2, align 1
  br label %45

44:                                               ; preds = %34, %30
  store i8 0, ptr %2, align 1
  br label %45

45:                                               ; preds = %44, %38, %24, %11
  %46 = load i8, ptr %2, align 1
  ret i8 %46
}

; Function Attrs: nounwind uwtable
define internal ptr @percent_decode(ptr noundef %0, i64 noundef %1) #0 {
  %3 = alloca ptr, align 8
  %4 = alloca i64, align 8
  %5 = alloca ptr, align 8
  %6 = alloca i64, align 8
  %7 = alloca i64, align 8
  store ptr %0, ptr %3, align 8, !tbaa !15
  store i64 %1, ptr %4, align 8, !tbaa !60
  call void @llvm.lifetime.start.p0(i64 8, ptr %5) #11
  %8 = load i64, ptr %4, align 8, !tbaa !60
  %9 = add i64 %8, 1
  %10 = call noalias ptr @malloc(i64 noundef %9) #14
  store ptr %10, ptr %5, align 8, !tbaa !15
  %11 = load i64, ptr %4, align 8, !tbaa !60
  %12 = icmp ugt i64 %11, 3
  br i1 %12, label %13, label %101

13:                                               ; preds = %2
  call void @llvm.lifetime.start.p0(i64 8, ptr %6) #11
  call void @llvm.lifetime.start.p0(i64 8, ptr %7) #11
  store i64 0, ptr %6, align 8, !tbaa !60
  store i64 0, ptr %7, align 8, !tbaa !60
  br label %14

14:                                               ; preds = %66, %56, %13
  %15 = load i64, ptr %6, align 8, !tbaa !60
  %16 = load i64, ptr %4, align 8, !tbaa !60
  %17 = sub i64 %16, 2
  %18 = icmp ult i64 %15, %17
  br i1 %18, label %19, label %90

19:                                               ; preds = %14
  %20 = load ptr, ptr %3, align 8, !tbaa !15
  %21 = load i64, ptr %6, align 8, !tbaa !60
  %22 = getelementptr inbounds nuw i8, ptr %20, i64 %21
  %23 = load i8, ptr %22, align 1, !tbaa !14
  %24 = zext i8 %23 to i32
  %25 = icmp ne i32 %24, 37
  br i1 %25, label %56, label %26

26:                                               ; preds = %19
  %27 = call ptr @__ctype_b_loc() #16
  %28 = load ptr, ptr %27, align 8, !tbaa !80
  %29 = load ptr, ptr %3, align 8, !tbaa !15
  %30 = load i64, ptr %6, align 8, !tbaa !60
  %31 = add i64 %30, 1
  %32 = getelementptr inbounds nuw i8, ptr %29, i64 %31
  %33 = load i8, ptr %32, align 1, !tbaa !14
  %34 = zext i8 %33 to i32
  %35 = sext i32 %34 to i64
  %36 = getelementptr inbounds i16, ptr %28, i64 %35
  %37 = load i16, ptr %36, align 2, !tbaa !56
  %38 = zext i16 %37 to i32
  %39 = and i32 %38, 4096
  %40 = icmp ne i32 %39, 0
  br i1 %40, label %41, label %56

41:                                               ; preds = %26
  %42 = call ptr @__ctype_b_loc() #16
  %43 = load ptr, ptr %42, align 8, !tbaa !80
  %44 = load ptr, ptr %3, align 8, !tbaa !15
  %45 = load i64, ptr %6, align 8, !tbaa !60
  %46 = add i64 %45, 2
  %47 = getelementptr inbounds nuw i8, ptr %44, i64 %46
  %48 = load i8, ptr %47, align 1, !tbaa !14
  %49 = zext i8 %48 to i32
  %50 = sext i32 %49 to i64
  %51 = getelementptr inbounds i16, ptr %43, i64 %50
  %52 = load i16, ptr %51, align 2, !tbaa !56
  %53 = zext i16 %52 to i32
  %54 = and i32 %53, 4096
  %55 = icmp ne i32 %54, 0
  br i1 %55, label %66, label %56

56:                                               ; preds = %41, %26, %19
  %57 = load ptr, ptr %3, align 8, !tbaa !15
  %58 = load i64, ptr %6, align 8, !tbaa !60
  %59 = add i64 %58, 1
  store i64 %59, ptr %6, align 8, !tbaa !60
  %60 = getelementptr inbounds nuw i8, ptr %57, i64 %58
  %61 = load i8, ptr %60, align 1, !tbaa !14
  %62 = load ptr, ptr %5, align 8, !tbaa !15
  %63 = load i64, ptr %7, align 8, !tbaa !60
  %64 = add i64 %63, 1
  store i64 %64, ptr %7, align 8, !tbaa !60
  %65 = getelementptr inbounds nuw i8, ptr %62, i64 %63
  store i8 %61, ptr %65, align 1, !tbaa !14
  br label %14, !llvm.loop !82

66:                                               ; preds = %41
  %67 = load ptr, ptr %3, align 8, !tbaa !15
  %68 = load i64, ptr %6, align 8, !tbaa !60
  %69 = add i64 %68, 1
  %70 = getelementptr inbounds nuw i8, ptr %67, i64 %69
  %71 = load i8, ptr %70, align 1, !tbaa !14
  %72 = call zeroext i8 @hex_to_uint(i8 noundef zeroext %71)
  %73 = zext i8 %72 to i32
  %74 = shl i32 %73, 4
  %75 = load ptr, ptr %3, align 8, !tbaa !15
  %76 = load i64, ptr %6, align 8, !tbaa !60
  %77 = add i64 %76, 2
  %78 = getelementptr inbounds nuw i8, ptr %75, i64 %77
  %79 = load i8, ptr %78, align 1, !tbaa !14
  %80 = call zeroext i8 @hex_to_uint(i8 noundef zeroext %79)
  %81 = zext i8 %80 to i32
  %82 = add nsw i32 %74, %81
  %83 = trunc i32 %82 to i8
  %84 = load ptr, ptr %5, align 8, !tbaa !15
  %85 = load i64, ptr %7, align 8, !tbaa !60
  %86 = add i64 %85, 1
  store i64 %86, ptr %7, align 8, !tbaa !60
  %87 = getelementptr inbounds nuw i8, ptr %84, i64 %85
  store i8 %83, ptr %87, align 1, !tbaa !14
  %88 = load i64, ptr %6, align 8, !tbaa !60
  %89 = add i64 %88, 3
  store i64 %89, ptr %6, align 8, !tbaa !60
  br label %14, !llvm.loop !82

90:                                               ; preds = %14
  %91 = load ptr, ptr %5, align 8, !tbaa !15
  %92 = load i64, ptr %7, align 8, !tbaa !60
  %93 = getelementptr inbounds nuw i8, ptr %91, i64 %92
  %94 = load ptr, ptr %3, align 8, !tbaa !15
  %95 = load i64, ptr %6, align 8, !tbaa !60
  %96 = getelementptr inbounds nuw i8, ptr %94, i64 %95
  call void @llvm.memcpy.p0.p0.i64(ptr align 1 %93, ptr align 1 %96, i64 2, i1 false)
  %97 = load ptr, ptr %5, align 8, !tbaa !15
  %98 = load i64, ptr %7, align 8, !tbaa !60
  %99 = add i64 %98, 2
  %100 = getelementptr inbounds nuw i8, ptr %97, i64 %99
  store i8 0, ptr %100, align 1, !tbaa !14
  call void @llvm.lifetime.end.p0(i64 8, ptr %7) #11
  call void @llvm.lifetime.end.p0(i64 8, ptr %6) #11
  br label %108

101:                                              ; preds = %2
  %102 = load ptr, ptr %5, align 8, !tbaa !15
  %103 = load ptr, ptr %3, align 8, !tbaa !15
  %104 = load i64, ptr %4, align 8, !tbaa !60
  call void @llvm.memcpy.p0.p0.i64(ptr align 1 %102, ptr align 1 %103, i64 %104, i1 false)
  %105 = load ptr, ptr %5, align 8, !tbaa !15
  %106 = load i64, ptr %4, align 8, !tbaa !60
  %107 = getelementptr inbounds nuw i8, ptr %105, i64 %106
  store i8 0, ptr %107, align 1, !tbaa !14
  br label %108

108:                                              ; preds = %101, %90
  %109 = load ptr, ptr %5, align 8, !tbaa !15
  call void @llvm.lifetime.end.p0(i64 8, ptr %5) #11
  ret ptr %109
}

; Function Attrs: nounwind uwtable
define internal i32 @on_header_callback(ptr noundef %0, ptr noundef %1, ptr noundef %2, i64 noundef %3, ptr noundef %4, i64 noundef %5, i8 noundef zeroext %6, ptr noundef %7) #0 {
  %9 = alloca ptr, align 8
  %10 = alloca ptr, align 8
  %11 = alloca ptr, align 8
  %12 = alloca i64, align 8
  %13 = alloca ptr, align 8
  %14 = alloca i64, align 8
  %15 = alloca i8, align 1
  %16 = alloca ptr, align 8
  %17 = alloca ptr, align 8
  %18 = alloca [6 x i8], align 1
  %19 = alloca i64, align 8
  store ptr %0, ptr %9, align 8, !tbaa !70
  store ptr %1, ptr %10, align 8, !tbaa !42
  store ptr %2, ptr %11, align 8, !tbaa !15
  store i64 %3, ptr %12, align 8, !tbaa !60
  store ptr %4, ptr %13, align 8, !tbaa !15
  store i64 %5, ptr %14, align 8, !tbaa !60
  store i8 %6, ptr %15, align 1, !tbaa !14
  store ptr %7, ptr %16, align 8, !tbaa !42
  call void @llvm.lifetime.start.p0(i64 8, ptr %17) #11
  call void @llvm.lifetime.start.p0(i64 6, ptr %18) #11
  call void @llvm.memcpy.p0.p0.i64(ptr align 1 %18, ptr align 1 @__const.on_header_callback.PATH, i64 6, i1 false)
  %20 = load ptr, ptr %10, align 8, !tbaa !42
  %21 = getelementptr inbounds nuw %struct.nghttp2_frame_hd, ptr %20, i32 0, i32 2
  %22 = load i8, ptr %21, align 4, !tbaa !14
  %23 = zext i8 %22 to i32
  switch i32 %23, label %78 [
    i32 1, label %24
  ]

24:                                               ; preds = %8
  %25 = load ptr, ptr %10, align 8, !tbaa !42
  %26 = getelementptr inbounds nuw %struct.nghttp2_headers, ptr %25, i32 0, i32 5
  %27 = load i32, ptr %26, align 8, !tbaa !14
  %28 = icmp ne i32 %27, 0
  br i1 %28, label %29, label %30

29:                                               ; preds = %24
  br label %78

30:                                               ; preds = %24
  %31 = load ptr, ptr %9, align 8, !tbaa !70
  %32 = load ptr, ptr %10, align 8, !tbaa !42
  %33 = getelementptr inbounds nuw %struct.nghttp2_frame_hd, ptr %32, i32 0, i32 1
  %34 = load i32, ptr %33, align 8, !tbaa !14
  %35 = call ptr @nghttp2_session_get_stream_user_data(ptr noundef %31, i32 noundef %34)
  store ptr %35, ptr %17, align 8, !tbaa !63
  %36 = load ptr, ptr %17, align 8, !tbaa !63
  %37 = icmp ne ptr %36, null
  br i1 %37, label %38, label %43

38:                                               ; preds = %30
  %39 = load ptr, ptr %17, align 8, !tbaa !63
  %40 = getelementptr inbounds nuw %struct.http2_stream_data, ptr %39, i32 0, i32 2
  %41 = load ptr, ptr %40, align 8, !tbaa !67
  %42 = icmp ne ptr %41, null
  br i1 %42, label %43, label %44

43:                                               ; preds = %38, %30
  br label %78

44:                                               ; preds = %38
  %45 = load i64, ptr %12, align 8, !tbaa !60
  %46 = icmp eq i64 %45, 5
  br i1 %46, label %47, label %77

47:                                               ; preds = %44
  %48 = getelementptr inbounds [6 x i8], ptr %18, i64 0, i64 0
  %49 = load ptr, ptr %11, align 8, !tbaa !15
  %50 = load i64, ptr %12, align 8, !tbaa !60
  %51 = call i32 @memcmp(ptr noundef %48, ptr noundef %49, i64 noundef %50) #15
  %52 = icmp eq i32 %51, 0
  br i1 %52, label %53, label %77

53:                                               ; preds = %47
  call void @llvm.lifetime.start.p0(i64 8, ptr %19) #11
  store i64 0, ptr %19, align 8, !tbaa !60
  br label %54

54:                                               ; preds = %68, %53
  %55 = load i64, ptr %19, align 8, !tbaa !60
  %56 = load i64, ptr %14, align 8, !tbaa !60
  %57 = icmp ult i64 %55, %56
  br i1 %57, label %58, label %65

58:                                               ; preds = %54
  %59 = load ptr, ptr %13, align 8, !tbaa !15
  %60 = load i64, ptr %19, align 8, !tbaa !60
  %61 = getelementptr inbounds nuw i8, ptr %59, i64 %60
  %62 = load i8, ptr %61, align 1, !tbaa !14
  %63 = zext i8 %62 to i32
  %64 = icmp ne i32 %63, 63
  br label %65

65:                                               ; preds = %58, %54
  %66 = phi i1 [ false, %54 ], [ %64, %58 ]
  br i1 %66, label %67, label %71

67:                                               ; preds = %65
  br label %68

68:                                               ; preds = %67
  %69 = load i64, ptr %19, align 8, !tbaa !60
  %70 = add i64 %69, 1
  store i64 %70, ptr %19, align 8, !tbaa !60
  br label %54, !llvm.loop !71

71:                                               ; preds = %65
  %72 = load ptr, ptr %13, align 8, !tbaa !15
  %73 = load i64, ptr %19, align 8, !tbaa !60
  %74 = call ptr @percent_decode(ptr noundef %72, i64 noundef %73)
  %75 = load ptr, ptr %17, align 8, !tbaa !63
  %76 = getelementptr inbounds nuw %struct.http2_stream_data, ptr %75, i32 0, i32 2
  store ptr %74, ptr %76, align 8, !tbaa !67
  call void @llvm.lifetime.end.p0(i64 8, ptr %19) #11
  br label %77

77:                                               ; preds = %71, %47, %44
  br label %78

78:                                               ; preds = %8, %77, %43, %29
  call void @llvm.lifetime.end.p0(i64 6, ptr %18) #11
  call void @llvm.lifetime.end.p0(i64 8, ptr %17) #11
  ret i32 0
}