; Function Attrs: nounwind uwtable
define internal noundef i32 @on_header_callback(ptr noundef %0, ptr noundef readonly captures(none) %1, ptr noundef readonly captures(none) %2, i64 noundef %3, ptr noundef readonly captures(none) %4, i64 noundef %5, i8 zeroext %6, ptr readnone captures(none) %7) #0 {
  %9 = getelementptr inbounds nuw i8, ptr %1, i64 12
  %10 = load i8, ptr %9, align 4, !tbaa !9
  %cond = icmp eq i8 %10, 1
  br i1 %cond, label %11, label %85

11:                                               ; preds = %8
  %12 = getelementptr inbounds nuw i8, ptr %1, i64 56
  %13 = load i32, ptr %12, align 8, !tbaa !9
  %.not = icmp eq i32 %13, 0
  br i1 %.not, label %14, label %85

14:                                               ; preds = %11
  %15 = getelementptr inbounds nuw i8, ptr %1, i64 8
  %16 = load i32, ptr %15, align 8, !tbaa !9
  %17 = tail call ptr @nghttp2_session_get_stream_user_data(ptr noundef %0, i32 noundef %16) #21
  %.not19 = icmp eq ptr %17, null
  br i1 %.not19, label %85, label %18

18:                                               ; preds = %14
  %19 = getelementptr inbounds nuw i8, ptr %17, i64 16
  %20 = load ptr, ptr %19, align 8, !tbaa !44
  %21 = icmp eq ptr %20, null
  %22 = icmp eq i64 %3, 5
  %or.cond = and i1 %22, %21
  br i1 %or.cond, label %23, label %85

23:                                               ; preds = %18
  %bcmp = tail call i32 @bcmp(ptr noundef nonnull dereferenceable(5) @__const.on_header_callback.PATH, ptr noundef nonnull dereferenceable(5) %2, i64 5)
  %24 = icmp eq i32 %bcmp, 0
  br i1 %24, label %.preheader, label %85

.preheader:                                       ; preds = %23
  %.not24 = icmp eq i64 %5, 0
  br i1 %.not24, label %.critedge.thread, label %.lr.ph

.critedge.thread:                                 ; preds = %.preheader
  %25 = tail call noalias dereferenceable_or_null(1) ptr @malloc(i64 noundef 1) #27
  br label %81

.lr.ph:                                           ; preds = %.preheader, %28
  %.021 = phi i64 [ %29, %28 ], [ 0, %.preheader ]
  %26 = getelementptr inbounds nuw i8, ptr %4, i64 %.021
  %27 = load i8, ptr %26, align 1, !tbaa !9
  %.not20 = icmp eq i8 %27, 63
  br i1 %.not20, label %.critedge, label %28

28:                                               ; preds = %.lr.ph
  %29 = add nuw i64 %.021, 1
  %exitcond.not = icmp eq i64 %29, %5
  br i1 %exitcond.not, label %.critedge, label %.lr.ph, !llvm.loop !51

.critedge:                                        ; preds = %.lr.ph, %28
  %.0.lcssa = phi i64 [ %.021, %.lr.ph ], [ %5, %28 ]
  %30 = add i64 %.0.lcssa, 1
  %31 = tail call noalias ptr @malloc(i64 noundef %30) #27
  %32 = icmp ugt i64 %.0.lcssa, 3
  br i1 %32, label %.lr.ph.preheader.i, label %81

.lr.ph.preheader.i:                               ; preds = %.critedge
  %33 = add i64 %.0.lcssa, -2
  br label %.lr.ph.i

.lr.ph.i:                                         ; preds = %.backedge.i, %.lr.ph.preheader.i
  %.043.i = phi i64 [ %.0.be.i, %.backedge.i ], [ 0, %.lr.ph.preheader.i ]
  %.03242.i = phi i64 [ %.032.be.i, %.backedge.i ], [ 0, %.lr.ph.preheader.i ]
  %34 = getelementptr inbounds nuw i8, ptr %4, i64 %.03242.i
  %35 = load i8, ptr %34, align 1, !tbaa !9
  %.not.i = icmp eq i8 %35, 37
  br i1 %.not.i, label %36, label %52

36:                                               ; preds = %.lr.ph.i
  %37 = tail call ptr @__ctype_b_loc() #28
  %38 = load ptr, ptr %37, align 8, !tbaa !52
  %39 = getelementptr i8, ptr %34, i64 1
  %40 = load i8, ptr %39, align 1, !tbaa !9
  %41 = zext i8 %40 to i64
  %42 = getelementptr inbounds nuw i16, ptr %38, i64 %41
  %43 = load i16, ptr %42, align 2, !tbaa !54
  %44 = and i16 %43, 4096
  %.not34.i = icmp eq i16 %44, 0
  br i1 %.not34.i, label %52, label %45

45:                                               ; preds = %36
  %46 = getelementptr i8, ptr %34, i64 2
  %47 = load i8, ptr %46, align 1, !tbaa !9
  %48 = zext i8 %47 to i64
  %49 = getelementptr inbounds nuw i16, ptr %38, i64 %48
  %50 = load i16, ptr %49, align 2, !tbaa !54
  %51 = and i16 %50, 4096
  %.not35.i = icmp eq i16 %51, 0
  br i1 %.not35.i, label %52, label %56

52:                                               ; preds = %45, %36, %.lr.ph.i
  %53 = add nuw i64 %.03242.i, 1
  %54 = getelementptr inbounds nuw i8, ptr %31, i64 %.043.i
  store i8 %35, ptr %54, align 1, !tbaa !9
  br label %.backedge.i

.backedge.i:                                      ; preds = %hex_to_uint.exit41.i, %52
  %.032.be.i = phi i64 [ %53, %52 ], [ %76, %hex_to_uint.exit41.i ]
  %.0.be.i = add i64 %.043.i, 1
  %55 = icmp ult i64 %.032.be.i, %33
  br i1 %55, label %.lr.ph.i, label %._crit_edge.i, !llvm.loop !56

56:                                               ; preds = %45
  %57 = add i8 %40, -48
  %or.cond.i.i = icmp ult i8 %57, 10
  br i1 %or.cond.i.i, label %hex_to_uint.exit.i, label %58

58:                                               ; preds = %56
  %59 = add i8 %40, -65
  %or.cond5.i.i = icmp ult i8 %59, 6
  br i1 %or.cond5.i.i, label %60, label %62

60:                                               ; preds = %58
  %61 = add nsw i8 %40, -55
  br label %hex_to_uint.exit.i

62:                                               ; preds = %58
  %63 = add i8 %40, -97
  %or.cond8.i.i = icmp ult i8 %63, 6
  %64 = add nsw i8 %40, -87
  %spec.select.i.i = select i1 %or.cond8.i.i, i8 %64, i8 0
  br label %hex_to_uint.exit.i

hex_to_uint.exit.i:                               ; preds = %62, %60, %56
  %.0.i.i = phi i8 [ %61, %60 ], [ %spec.select.i.i, %62 ], [ %57, %56 ]
  %65 = shl nuw i8 %.0.i.i, 4
  %66 = add i8 %47, -48
  %or.cond.i36.i = icmp ult i8 %66, 10
  br i1 %or.cond.i36.i, label %hex_to_uint.exit41.i, label %67

67:                                               ; preds = %hex_to_uint.exit.i
  %68 = add i8 %47, -65
  %or.cond5.i37.i = icmp ult i8 %68, 6
  br i1 %or.cond5.i37.i, label %69, label %71

69:                                               ; preds = %67
  %70 = add nsw i8 %47, -55
  br label %hex_to_uint.exit41.i

71:                                               ; preds = %67
  %72 = add i8 %47, -97
  %or.cond8.i38.i = icmp ult i8 %72, 6
  %73 = add nsw i8 %47, -87
  %spec.select.i39.i = select i1 %or.cond8.i38.i, i8 %73, i8 0
  br label %hex_to_uint.exit41.i

hex_to_uint.exit41.i:                             ; preds = %71, %69, %hex_to_uint.exit.i
  %.0.i40.i = phi i8 [ %70, %69 ], [ %spec.select.i39.i, %71 ], [ %66, %hex_to_uint.exit.i ]
  %74 = add nuw nsw i8 %.0.i40.i, %65
  %75 = getelementptr inbounds nuw i8, ptr %31, i64 %.043.i
  store i8 %74, ptr %75, align 1, !tbaa !9
  %76 = add nuw i64 %.03242.i, 3
  br label %.backedge.i

._crit_edge.i:                                    ; preds = %.backedge.i
  %77 = getelementptr inbounds nuw i8, ptr %31, i64 %.0.be.i
  %78 = getelementptr inbounds nuw i8, ptr %4, i64 %.032.be.i
  %79 = load i16, ptr %78, align 1
  store i16 %79, ptr %77, align 1
  %80 = getelementptr i8, ptr %77, i64 2
  store i8 0, ptr %80, align 1, !tbaa !9
  br label %percent_decode.exit

81:                                               ; preds = %.critedge.thread, %.critedge
  %82 = phi ptr [ %25, %.critedge.thread ], [ %31, %.critedge ]
  %.0.lcssa26 = phi i64 [ 0, %.critedge.thread ], [ %.0.lcssa, %.critedge ]
  tail call void @llvm.memcpy.p0.p0.i64(ptr align 1 %82, ptr readonly align 1 %4, i64 %.0.lcssa26, i1 false)
  %83 = getelementptr inbounds nuw i8, ptr %82, i64 %.0.lcssa26
  store i8 0, ptr %83, align 1, !tbaa !9
  br label %percent_decode.exit

percent_decode.exit:                              ; preds = %._crit_edge.i, %81
  %84 = phi ptr [ %31, %._crit_edge.i ], [ %82, %81 ]
  store ptr %84, ptr %19, align 8, !tbaa !44
  br label %85

85:                                               ; preds = %23, %percent_decode.exit, %14, %18, %11, %8
  ret i32 0
}